target datalayout = "e-m:e-p270:32:32-p271:32:32-p272:64:64-i64:64-i128:128-f80:128-n8:16:32:64-S128"
target triple = "x86_64-pc-linux-gnu"

%struct.GeoShape = type { i32, [2 x double], double, [4 x double], %union.anon }
%union.anon = type { %struct.anon }
%struct.anon = type { double, double }

; Function Attrs: inlinehint nounwind uwtable
define internal double @deg_rad(double noundef %0) #2 {
  %2 = alloca double, align 8
  store double %0, ptr %2, align 8, !tbaa !5
  %3 = load double, ptr %2, align 8, !tbaa !5
  %4 = fmul double %3, 0x3F91DF46A2529D39
  ret double %4
}

; Function Attrs: inlinehint nounwind uwtable
define internal double @rad_deg(double noundef %0) #2 {
  %2 = alloca double, align 8
  store double %0, ptr %2, align 8, !tbaa !5
  %3 = load double, ptr %2, align 8, !tbaa !5
  %4 = fdiv double %3, 0x3F91DF46A2529D39
  ret double %4
}

; Function Attrs: nounwind uwtable
define dso_local i32 @geohashBoundingBox(ptr noundef %0, ptr noundef %1) #0 {
  %3 = alloca i32, align 4
  %4 = alloca ptr, align 8
  %5 = alloca ptr, align 8
  %6 = alloca double, align 8
  %7 = alloca double, align 8
  %8 = alloca double, align 8
  %9 = alloca double, align 8
  %10 = alloca double, align 8
  %11 = alloca double, align 8
  %12 = alloca double, align 8
  %13 = alloca i32, align 4
  store ptr %0, ptr %4, align 8, !tbaa !13
  store ptr %1, ptr %5, align 8, !tbaa !15
  %14 = load ptr, ptr %5, align 8, !tbaa !15
  %15 = icmp ne ptr %14, null
  br i1 %15, label %17, label %16

16:                                               ; preds = %2
  store i32 0, ptr %3, align 4
  br label %128

17:                                               ; preds = %2
  call void @llvm.lifetime.start.p0(i64 8, ptr %6) #7
  %18 = load ptr, ptr %4, align 8, !tbaa !13
  %19 = getelementptr inbounds nuw %struct.GeoShape, ptr %18, i32 0, i32 1
  %20 = getelementptr inbounds [2 x double], ptr %19, i64 0, i64 0
  %21 = load double, ptr %20, align 8, !tbaa !5
  store double %21, ptr %6, align 8, !tbaa !5
  call void @llvm.lifetime.start.p0(i64 8, ptr %7) #7
  %22 = load ptr, ptr %4, align 8, !tbaa !13
  %23 = getelementptr inbounds nuw %struct.GeoShape, ptr %22, i32 0, i32 1
  %24 = getelementptr inbounds [2 x double], ptr %23, i64 0, i64 1
  %25 = load double, ptr %24, align 8, !tbaa !5
  store double %25, ptr %7, align 8, !tbaa !5
  call void @llvm.lifetime.start.p0(i64 8, ptr %8) #7
  %26 = load ptr, ptr %4, align 8, !tbaa !13
  %27 = getelementptr inbounds nuw %struct.GeoShape, ptr %26, i32 0, i32 2
  %28 = load double, ptr %27, align 8, !tbaa !17
  %29 = load ptr, ptr %4, align 8, !tbaa !13
  %30 = getelementptr inbounds nuw %struct.GeoShape, ptr %29, i32 0, i32 0
  %31 = load i32, ptr %30, align 8, !tbaa !19
  %32 = icmp eq i32 %31, 1
  br i1 %32, label %33, label %37

33:                                               ; preds = %17
  %34 = load ptr, ptr %4, align 8, !tbaa !13
  %35 = getelementptr inbounds nuw %struct.GeoShape, ptr %34, i32 0, i32 4
  %36 = load double, ptr %35, align 8, !tbaa !20
  br label %43

37:                                               ; preds = %17
  %38 = load ptr, ptr %4, align 8, !tbaa !13
  %39 = getelementptr inbounds nuw %struct.GeoShape, ptr %38, i32 0, i32 4
  %40 = getelementptr inbounds nuw %struct.anon, ptr %39, i32 0, i32 0
  %41 = load double, ptr %40, align 8, !tbaa !20
  %42 = fdiv double %41, 2.000000e+00
  br label %43

43:                                               ; preds = %37, %33
  %44 = phi double [ %36, %33 ], [ %42, %37 ]
  %45 = fmul double %28, %44
  store double %45, ptr %8, align 8, !tbaa !5
  call void @llvm.lifetime.start.p0(i64 8, ptr %9) #7
  %46 = load ptr, ptr %4, align 8, !tbaa !13
  %47 = getelementptr inbounds nuw %struct.GeoShape, ptr %46, i32 0, i32 2
  %48 = load double, ptr %47, align 8, !tbaa !17
  %49 = load ptr, ptr %4, align 8, !tbaa !13
  %50 = getelementptr inbounds nuw %struct.GeoShape, ptr %49, i32 0, i32 0
  %51 = load i32, ptr %50, align 8, !tbaa !19
  %52 = icmp eq i32 %51, 1
  br i1 %52, label %53, label %57

53:                                               ; preds = %43
  %54 = load ptr, ptr %4, align 8, !tbaa !13
  %55 = getelementptr inbounds nuw %struct.GeoShape, ptr %54, i32 0, i32 4
  %56 = load double, ptr %55, align 8, !tbaa !20
  br label %63

57:                                               ; preds = %43
  %58 = load ptr, ptr %4, align 8, !tbaa !13
  %59 = getelementptr inbounds nuw %struct.GeoShape, ptr %58, i32 0, i32 4
  %60 = getelementptr inbounds nuw %struct.anon, ptr %59, i32 0, i32 1
  %61 = load double, ptr %60, align 8, !tbaa !20
  %62 = fdiv double %61, 2.000000e+00
  br label %63

63:                                               ; preds = %57, %53
  %64 = phi double [ %56, %53 ], [ %62, %57 ]
  %65 = fmul double %48, %64
  store double %65, ptr %9, align 8, !tbaa !5
  call void @llvm.lifetime.start.p0(i64 8, ptr %10) #7
  %66 = load double, ptr %8, align 8, !tbaa !5
  %67 = fdiv double %66, 0x41584F6F63E51090
  %68 = call double @rad_deg(double noundef %67)
  store double %68, ptr %10, align 8, !tbaa !5
  call void @llvm.lifetime.start.p0(i64 8, ptr %11) #7
  %69 = load double, ptr %9, align 8, !tbaa !5
  %70 = fdiv double %69, 0x41584F6F63E51090
  %71 = load double, ptr %7, align 8, !tbaa !5
  %72 = load double, ptr %10, align 8, !tbaa !5
  %73 = fadd double %71, %72
  %74 = call double @deg_rad(double noundef %73)
  %75 = call double @cos(double noundef %74) #7, !tbaa !9
  %76 = fdiv double %70, %75
  %77 = call double @rad_deg(double noundef %76)
  store double %77, ptr %11, align 8, !tbaa !5
  call void @llvm.lifetime.start.p0(i64 8, ptr %12) #7
  %78 = load double, ptr %9, align 8, !tbaa !5
  %79 = fdiv double %78, 0x41584F6F63E51090
  %80 = load double, ptr %7, align 8, !tbaa !5
  %81 = load double, ptr %10, align 8, !tbaa !5
  %82 = fsub double %80, %81
  %83 = call double @deg_rad(double noundef %82)
  %84 = call double @cos(double noundef %83) #7, !tbaa !9
  %85 = fdiv double %79, %84
  %86 = call double @rad_deg(double noundef %85)
  store double %86, ptr %12, align 8, !tbaa !5
  call void @llvm.lifetime.start.p0(i64 4, ptr %13) #7
  %87 = load double, ptr %7, align 8, !tbaa !5
  %88 = fcmp olt double %87, 0.000000e+00
  %89 = select i1 %88, i32 1, i32 0
  store i32 %89, ptr %13, align 4, !tbaa !9
  %90 = load i32, ptr %13, align 4, !tbaa !9
  %91 = icmp ne i32 %90, 0
  br i1 %91, label %92, label %96

92:                                               ; preds = %63
  %93 = load double, ptr %6, align 8, !tbaa !5
  %94 = load double, ptr %12, align 8, !tbaa !5
  %95 = fsub double %93, %94
  br label %100

96:                                               ; preds = %63
  %97 = load double, ptr %6, align 8, !tbaa !5
  %98 = load double, ptr %11, align 8, !tbaa !5
  %99 = fsub double %97, %98
  br label %100

100:                                              ; preds = %96, %92
  %101 = phi double [ %95, %92 ], [ %99, %96 ]
  %102 = load ptr, ptr %5, align 8, !tbaa !15
  %103 = getelementptr inbounds double, ptr %102, i64 0
  store double %101, ptr %103, align 8, !tbaa !5
  %104 = load i32, ptr %13, align 4, !tbaa !9
  %105 = icmp ne i32 %104, 0
  br i1 %105, label %106, label %110

106:                                              ; preds = %100
  %107 = load double, ptr %6, align 8, !tbaa !5
  %108 = load double, ptr %12, align 8, !tbaa !5
  %109 = fadd double %107, %108
  br label %114

110:                                              ; preds = %100
  %111 = load double, ptr %6, align 8, !tbaa !5
  %112 = load double, ptr %11, align 8, !tbaa !5
  %113 = fadd double %111, %112
  br label %114

114:                                              ; preds = %110, %106
  %115 = phi double [ %109, %106 ], [ %113, %110 ]
  %116 = load ptr, ptr %5, align 8, !tbaa !15
  %117 = getelementptr inbounds double, ptr %116, i64 2
  store double %115, ptr %117, align 8, !tbaa !5
  %118 = load double, ptr %7, align 8, !tbaa !5
  %119 = load double, ptr %10, align 8, !tbaa !5
  %120 = fsub double %118, %119
  %121 = load ptr, ptr %5, align 8, !tbaa !15
  %122 = getelementptr inbounds double, ptr %121, i64 1
  store double %120, ptr %122, align 8, !tbaa !5
  %123 = load double, ptr %7, align 8, !tbaa !5
  %124 = load double, ptr %10, align 8, !tbaa !5
  %125 = fadd double %123, %124
  %126 = load ptr, ptr %5, align 8, !tbaa !15
  %127 = getelementptr inbounds double, ptr %126, i64 3
  store double %125, ptr %127, align 8, !tbaa !5
  store i32 1, ptr %3, align 4
  call void @llvm.lifetime.end.p0(i64 4, ptr %13) #7
  call void @llvm.lifetime.end.p0(i64 8, ptr %12) #7
  call void @llvm.lifetime.end.p0(i64 8, ptr %11) #7
  call void @llvm.lifetime.end.p0(i64 8, ptr %10) #7
  call void @llvm.lifetime.end.p0(i64 8, ptr %9) #7
  call void @llvm.lifetime.end.p0(i64 8, ptr %8) #7
  call void @llvm.lifetime.end.p0(i64 8, ptr %7) #7
  call void @llvm.lifetime.end.p0(i64 8, ptr %6) #7
  br label %128

128:                                              ; preds = %114, %16
  %129 = load i32, ptr %3, align 4
  ret i32 %129
}