; Function Attrs: mustprogress nofree nounwind willreturn memory(write, argmem: readwrite) uwtable
define dso_local range(i32 0, 2) i32 @geohashBoundingBox(ptr noundef readonly captures(none) %0, ptr noundef writeonly captures(address_is_null) %1) local_unnamed_addr #2 {
  %.not = icmp eq ptr %1, null
  br i1 %.not, label %38, label %3

3:                                                ; preds = %2
  %4 = getelementptr inbounds nuw i8, ptr %0, i64 8
  %5 = load double, ptr %4, align 8, !tbaa !7
  %6 = getelementptr inbounds nuw i8, ptr %0, i64 16
  %7 = load double, ptr %6, align 8, !tbaa !7
  %8 = getelementptr inbounds nuw i8, ptr %0, i64 24
  %9 = load double, ptr %8, align 8, !tbaa !11
  %10 = load i32, ptr %0, align 8, !tbaa !14
  %11 = icmp eq i32 %10, 1
  %12 = getelementptr inbounds nuw i8, ptr %0, i64 64
  %13 = load double, ptr %12, align 8, !tbaa !15
  br i1 %11, label %19, label %14

14:                                               ; preds = %3
  %15 = fmul double %13, 5.000000e-01
  %16 = getelementptr inbounds nuw i8, ptr %0, i64 72
  %17 = load double, ptr %16, align 8, !tbaa !15
  %18 = fmul double %17, 5.000000e-01
  br label %19

19:                                               ; preds = %3, %14
  %.pn = phi double [ %15, %14 ], [ %13, %3 ]
  %20 = phi double [ %18, %14 ], [ %13, %3 ]
  %21 = fmul double %9, %.pn
  %22 = fmul double %9, %20
  %23 = fdiv double %21, 0x41584F6F63E51090
  %24 = fdiv double %23, 0x3F91DF46A2529D39
  %25 = fdiv double %22, 0x41584F6F63E51090
  %26 = fadd double %7, %24
  %27 = fmul double %26, 0x3F91DF46A2529D39
  %28 = tail call double @cos(double noundef %27) #11, !tbaa !16
  %29 = fsub double %7, %24
  %30 = fmul double %29, 0x3F91DF46A2529D39
  %31 = tail call double @cos(double noundef %30) #11, !tbaa !16
  %32 = fcmp olt double %7, 0.000000e+00
  %..v.v = select i1 %32, double %31, double %28
  %..v = fdiv double %25, %..v.v
  %. = fdiv double %..v, 0x3F91DF46A2529D39
  %33 = fsub double %5, %.
  store double %33, ptr %1, align 8, !tbaa !7
  %34 = fadd double %5, %.
  %35 = getelementptr inbounds nuw i8, ptr %1, i64 16
  store double %34, ptr %35, align 8, !tbaa !7
  %36 = getelementptr inbounds nuw i8, ptr %1, i64 8
  store double %29, ptr %36, align 8, !tbaa !7
  %37 = getelementptr inbounds nuw i8, ptr %1, i64 24
  store double %26, ptr %37, align 8, !tbaa !7
  br label %38

38:                                               ; preds = %2, %19
  %.0 = phi i32 [ 1, %19 ], [ 0, %2 ]
  ret i32 %.0
}